; Function Attrs: mustprogress uwtable
define dso_local void @_Z22OutputVariableDeclListRKSt6vectorIP8VariableSaIS1_EERSoNSt7__cxx1112basic_stringIcSt11char_traitsIcESaIcEEEi(ptr noundef nonnull readonly align 8 captures(none) dereferenceable(24) %0, ptr noundef nonnull align 8 dereferenceable(8) %1, ptr noundef readonly captures(none) %2, i32 noundef %3) local_unnamed_addr #5 {
  %5 = getelementptr inbounds nuw i8, ptr %0, i64 8
  %6 = load ptr, ptr %5, align 8, !tbaa !83
  %7 = load ptr, ptr %0, align 8, !tbaa !84
  %.not = icmp eq ptr %6, %7
  br i1 %.not, label %._crit_edge, label %.lr.ph

.lr.ph:                                           ; preds = %4
  %8 = getelementptr inbounds nuw i8, ptr %2, i64 8
  br label %9

._crit_edge:                                      ; preds = %9, %4
  ret void

9:                                                ; preds = %.lr.ph, %9
  %.010 = phi i64 [ 0, %.lr.ph ], [ %20, %9 ]
  tail call void @_Z10output_tabRSoi(ptr noundef nonnull align 8 dereferenceable(8) %1, i32 noundef %3)
  %10 = load ptr, ptr %2, align 8, !tbaa !30
  %11 = load i64, ptr %8, align 8, !tbaa !18
  %12 = tail call noundef nonnull align 8 dereferenceable(8) ptr @_ZSt16__ostream_insertIcSt11char_traitsIcEERSt13basic_ostreamIT_T0_ES6_PKS3_l(ptr noundef nonnull align 8 dereferenceable(8) %1, ptr noundef %10, i64 noundef %11)
  %13 = load ptr, ptr %0, align 8, !tbaa !84
  %14 = getelementptr inbounds nuw ptr, ptr %13, i64 %.010
  %15 = load ptr, ptr %14, align 8, !tbaa !37
  %16 = load ptr, ptr %15, align 8, !tbaa !97
  %17 = getelementptr inbounds nuw i8, ptr %16, i64 104
  %18 = load ptr, ptr %17, align 8
  tail call void %18(ptr noundef nonnull align 8 dereferenceable(200) %15, ptr noundef nonnull align 8 dereferenceable(8) %1)
  %19 = tail call noundef nonnull align 8 dereferenceable(8) ptr @_ZSt16__ostream_insertIcSt11char_traitsIcEERSt13basic_ostreamIT_T0_ES6_PKS3_l(ptr noundef nonnull align 8 dereferenceable(8) %1, ptr noundef nonnull @.str.23, i64 noundef 1)
  tail call void @_Z8outputlnRSo(ptr noundef nonnull align 8 dereferenceable(8) %1)
  %20 = add nuw i64 %.010, 1
  %21 = load ptr, ptr %5, align 8, !tbaa !83
  %22 = load ptr, ptr %0, align 8, !tbaa !84
  %23 = ptrtoint ptr %21 to i64
  %24 = ptrtoint ptr %22 to i64
  %25 = sub i64 %23, %24
  %26 = ashr exact i64 %25, 3
  %27 = icmp ult i64 %20, %26
  br i1 %27, label %9, label %._crit_edge, !llvm.loop !232
}